; Function Attrs: nounwind uwtable
define dso_local i32 @lzma_alone_encoder(ptr noundef %0, ptr noundef %1) local_unnamed_addr #0 {
  %3 = tail call i32 @lzma_strm_init(ptr noundef %0) #6
  %.not.not = icmp eq i32 %3, 0
  br i1 %.not.not, label %4, label %15

4:                                                ; preds = %2
  %5 = getelementptr inbounds nuw i8, ptr %0, i64 56
  %6 = load ptr, ptr %5, align 8, !tbaa !4
  %7 = getelementptr inbounds nuw i8, ptr %0, i64 48
  %8 = load ptr, ptr %7, align 8, !tbaa !13
  %9 = tail call i32 @alone_encoder_init(ptr noundef %6, ptr noundef %8, ptr noundef %1)
  %.not15.not = icmp eq i32 %9, 0
  br i1 %.not15.not, label %11, label %10

10:                                               ; preds = %4
  tail call void @lzma_end(ptr noundef nonnull %0) #6
  br label %15

11:                                               ; preds = %4
  %12 = load ptr, ptr %5, align 8, !tbaa !4
  %13 = getelementptr inbounds nuw i8, ptr %12, i64 96
  store i8 1, ptr %13, align 8, !tbaa !14
  %14 = getelementptr inbounds nuw i8, ptr %12, i64 99
  store i8 1, ptr %14, align 1, !tbaa !14
  br label %15

15:                                               ; preds = %10, %2, %11
  %.1 = phi i32 [ %3, %2 ], [ %9, %10 ], [ 0, %11 ]
  ret i32 %.1
}